(dp0
I0
(dp1
I0
F0.20382165605095542
sI2
F0.3842887473460722
sI4
F0.06369426751592357
sI5
F0.01910828025477707
sI7
F0.05732484076433121
sI9
F0.03184713375796178
sI10
F0.004246284501061571
sI11
F0.23354564755838642
sI12
F0.0021231422505307855
ssI1
(dp2
I2
F0.8571428571428571
sI4
F0.14285714285714285
ssI2
(dp3
I0
F0.35852090032154343
sI1
F0.011254019292604502
sI2
F0.1414790996784566
sI3
F0.001607717041800643
sI4
F0.3954983922829582
sI5
F0.017684887459807074
sI7
F0.04180064308681672
sI9
F0.012861736334405145
sI10
F0.001607717041800643
sI11
F0.014469453376205787
sI14
F0.003215434083601286
ssI3
(dp4
I0
F0.125
sI2
F0.375
sI4
F0.25
sI10
F0.125
sI5
F0.125
ssI4
(dp5
I0
F0.058423913043478264
sI2
F0.391304347826087
sI3
F0.004076086956521739
sI4
F0.15489130434782608
sI5
F0.2418478260869565
sI6
F0.03940217391304348
sI7
F0.05434782608695652
sI9
F0.043478260869565216
sI11
F0.005434782608695652
sI12
F0.005434782608695652
sI16
F0.001358695652173913
ssI5
(dp6
I2
F0.04415584415584416
sI3
F0.007792207792207792
sI4
F0.6285714285714286
sI5
F0.06493506493506493
sI7
F0.24155844155844156
sI9
F0.012987012987012988
ssI6
(dp7
I8
F0.06666666666666667
sI4
F0.08333333333333333
sI6
F0.06666666666666667
sI7
F0.7833333333333333
ssI7
(dp8
I0
F0.052202283849918436
sI2
F0.048939641109298535
sI4
F0.07177814029363784
sI5
F0.25122349102773245
sI6
F0.040783034257748776
sI7
F0.23817292006525284
sI8
F0.0032626427406199023
sI9
F0.2137030995106036
sI10
F0.008156606851549755
sI11
F0.0065252854812398045
sI12
F0.0636215334420881
sI16
F0.0016313213703099511
ssI8
(dp9
I0
F0.06
sI4
F0.06
sI7
F0.02
sI8
F0.22
sI9
F0.62
sI16
F0.02
ssI9
(dp10
I0
F0.02578268876611418
sI2
F0.011049723756906077
sI4
F0.029465930018416207
sI5
F0.01289134438305709
sI6
F0.003683241252302026
sI7
F0.3443830570902394
sI8
F0.0570902394106814
sI9
F0.1878453038674033
sI10
F0.007366482504604052
sI11
F0.27992633517495397
sI12
F0.011049723756906077
sI14
F0.022099447513812154
sI16
F0.007366482504604052
ssI10
(dp11
I3
F0.05263157894736842
sI7
F0.10526315789473684
sI8
F0.05263157894736842
sI9
F0.631578947368421
sI10
F0.05263157894736842
sI12
F0.10526315789473684
ssI11
(dp12
I0
F0.156312625250501
sI1
F0.002004008016032064
sI2
F0.002004008016032064
sI4
F0.018036072144288578
sI7
F0.03206412825651302
sI8
F0.004008016032064128
sI9
F0.40480961923847697
sI11
F0.08216432865731463
sI12
F0.2785571142284569
sI13
F0.004008016032064128
sI14
F0.004008016032064128
sI16
F0.012024048096192385
ssI12
(dp13
I0
F0.0058997050147492625
sI4
F0.011799410029498525
sI7
F0.05014749262536873
sI9
F0.029498525073746312
sI10
F0.014749262536873156
sI11
F0.504424778761062
sI12
F0.1710914454277286
sI14
F0.1976401179941003
sI16
F0.008849557522123894
sI17
F0.0058997050147492625
ssI13
(dp14
I14
F1.0
ssI14
(dp15
I7
F0.019230769230769232
sI9
F0.03205128205128205
sI11
F0.019230769230769232
sI12
F0.5384615384615384
sI14
F0.16025641025641027
sI15
F0.00641025641025641
sI16
F0.22435897435897437
ssI15
(dp16
I14
F1.0
ssI16
(dp17
I9
F0.0273972602739726
sI11
F0.0547945205479452
sI12
F0.0410958904109589
sI14
F0.589041095890411
sI16
F0.2054794520547945
sI17
F0.0821917808219178
ssI17
(dp18
I16
F0.625
sI19
F0.125
sI14
F0.25
ssI19
(dp19
I12
F1.0
ss.